; Function Attrs: mustprogress uwtable
define void @_ZN6icu_7710ICUService21reInitializeFactoriesEv(ptr noundef nonnull readonly align 8 captures(none) dereferenceable(120) %0) unnamed_addr #0 align 2 {
  %2 = getelementptr inbounds nuw i8, ptr %0, i64 88
  %3 = load ptr, ptr %2, align 8, !tbaa !34
  %.not = icmp eq ptr %3, null
  br i1 %.not, label %5, label %4

4:                                                ; preds = %1
  tail call void @_ZN6icu_777UVector17removeAllElementsEv(ptr noundef nonnull align 8 dereferenceable(40) %3)
  br label %5

5:                                                ; preds = %4, %1
  ret void
}